target datalayout = "e-m:e-p270:32:32-p271:32:32-p272:64:64-i64:64-i128:128-f80:128-n8:16:32:64-S128"
target triple = "x86_64-pc-linux-gnu"

%struct.timeval = type { i64, i64 }
%struct.connection = type { i32, ptr, i32, %struct.timeval, ptr, i32 }

@.str.10 = private unnamed_addr constant [4 x i8] c"cmd\00", align 1
@.str.11 = private unnamed_addr constant [111 x i8] c"generated/home/dtcxzyw/WorkSpace/Projects/compilers/llvm-opt-benchmark/bench/clamav/clamav/clamdtop/clamdtop.c\00", align 1
@__PRETTY_FUNCTION__.send_string_noreconn = private unnamed_addr constant [49 x i8] c"int send_string_noreconn(conn_t *, const char *)\00", align 1
@.str.12 = private unnamed_addr constant [21 x i8] c"conn && conn->sd > 0\00", align 1
@.str.50 = private unnamed_addr constant [21 x i8] c"nIDSESSION\0AnVERSION\0A\00", align 1
@.str.51 = private unnamed_addr constant [19 x i8] c"nSESSION\0AnVERSION\0A\00", align 1

; Function Attrs: nounwind uwtable
define internal i32 @send_string_noreconn(ptr noundef %0, ptr noundef %1) #0 {
  %3 = alloca ptr, align 8
  %4 = alloca ptr, align 8
  store ptr %0, ptr %3, align 8
  store ptr %1, ptr %4, align 8
  %5 = load ptr, ptr %4, align 8
  %6 = icmp ne ptr %5, null
  br i1 %6, label %7, label %8

7:                                                ; preds = %2
  br label %9

8:                                                ; preds = %2
  call void @__assert_fail(ptr noundef @.str.10, ptr noundef @.str.11, i32 noundef 823, ptr noundef @__PRETTY_FUNCTION__.send_string_noreconn) #17
  unreachable

9:                                                ; preds = %7
  %10 = load ptr, ptr %3, align 8
  %11 = icmp ne ptr %10, null
  br i1 %11, label %12, label %18

12:                                               ; preds = %9
  %13 = load ptr, ptr %3, align 8
  %14 = getelementptr inbounds %struct.connection, ptr %13, i32 0, i32 0
  %15 = load i32, ptr %14, align 8
  %16 = icmp sgt i32 %15, 0
  br i1 %16, label %17, label %18

17:                                               ; preds = %12
  br label %19

18:                                               ; preds = %12, %9
  call void @__assert_fail(ptr noundef @.str.12, ptr noundef @.str.11, i32 noundef 824, ptr noundef @__PRETTY_FUNCTION__.send_string_noreconn) #17
  unreachable

19:                                               ; preds = %17
  %20 = load ptr, ptr %3, align 8
  %21 = getelementptr inbounds %struct.connection, ptr %20, i32 0, i32 0
  %22 = load i32, ptr %21, align 8
  %23 = load ptr, ptr %4, align 8
  %24 = load ptr, ptr %4, align 8
  %25 = call i64 @strlen(ptr noundef %24) #14
  %26 = call i64 @send(i32 noundef %22, ptr noundef %23, i64 noundef %25, i32 noundef 0)
  %27 = trunc i64 %26 to i32
  ret i32 %27
}

; Function Attrs: nounwind uwtable
define internal void @send_string(ptr noundef %0, ptr noundef %1) #0 {
  %3 = alloca ptr, align 8
  %4 = alloca ptr, align 8
  store ptr %0, ptr %3, align 8
  store ptr %1, ptr %4, align 8
  br label %5

5:                                                ; preds = %10, %2
  %6 = load ptr, ptr %3, align 8
  %7 = load ptr, ptr %4, align 8
  %8 = call i32 @send_string_noreconn(ptr noundef %6, ptr noundef %7)
  %9 = icmp eq i32 %8, -1
  br i1 %9, label %10, label %12

10:                                               ; preds = %5
  %11 = load ptr, ptr %3, align 8
  call void @reconnect(ptr noundef %11)
  br label %5

12:                                               ; preds = %5
  ret void
}

; Function Attrs: nounwind uwtable
define internal i32 @make_connection(ptr noundef %0, ptr noundef %1) #0 {
  %3 = alloca i32, align 4
  %4 = alloca ptr, align 8
  %5 = alloca ptr, align 8
  %6 = alloca i32, align 4
  store ptr %0, ptr %4, align 8
  store ptr %1, ptr %5, align 8
  %7 = load ptr, ptr %4, align 8
  %8 = icmp ne ptr %7, null
  br i1 %8, label %10, label %9

9:                                                ; preds = %2
  store i32 -1, ptr %3, align 4
  br label %44

10:                                               ; preds = %2
  %11 = load ptr, ptr %4, align 8
  %12 = load ptr, ptr %5, align 8
  %13 = call i32 @make_connection_real(ptr noundef %11, ptr noundef %12)
  store i32 %13, ptr %6, align 4
  %14 = icmp ne i32 %13, 0
  br i1 %14, label %15, label %17

15:                                               ; preds = %10
  %16 = load i32, ptr %6, align 4
  store i32 %16, ptr %3, align 4
  br label %44

17:                                               ; preds = %10
  %18 = load ptr, ptr %5, align 8
  call void @send_string(ptr noundef %18, ptr noundef @.str.50)
  %19 = load ptr, ptr %5, align 8
  %20 = getelementptr inbounds %struct.connection, ptr %19, i32 0, i32 4
  %21 = load ptr, ptr %20, align 8
  call void @free(ptr noundef %21) #13
  %22 = load ptr, ptr %5, align 8
  %23 = getelementptr inbounds %struct.connection, ptr %22, i32 0, i32 4
  store ptr null, ptr %23, align 8
  %24 = load ptr, ptr %5, align 8
  %25 = call i32 @read_version(ptr noundef %24)
  %26 = icmp ne i32 %25, 0
  br i1 %26, label %28, label %27

27:                                               ; preds = %17
  store i32 0, ptr %3, align 4
  br label %44

28:                                               ; preds = %17
  %29 = load ptr, ptr %4, align 8
  %30 = load ptr, ptr %5, align 8
  %31 = call i32 @make_connection_real(ptr noundef %29, ptr noundef %30)
  store i32 %31, ptr %6, align 4
  %32 = icmp ne i32 %31, 0
  br i1 %32, label %33, label %35

33:                                               ; preds = %28
  %34 = load i32, ptr %6, align 4
  store i32 %34, ptr %3, align 4
  br label %44

35:                                               ; preds = %28
  %36 = load ptr, ptr %5, align 8
  call void @send_string(ptr noundef %36, ptr noundef @.str.51)
  %37 = load ptr, ptr %5, align 8
  %38 = getelementptr inbounds %struct.connection, ptr %37, i32 0, i32 4
  store ptr null, ptr %38, align 8
  %39 = load ptr, ptr %5, align 8
  %40 = call i32 @read_version(ptr noundef %39)
  %41 = icmp ne i32 %40, 0
  br i1 %41, label %43, label %42

42:                                               ; preds = %35
  store i32 0, ptr %3, align 4
  br label %44

43:                                               ; preds = %35
  store i32 -1, ptr %3, align 4
  br label %44

44:                                               ; preds = %43, %42, %33, %27, %15, %9
  %45 = load i32, ptr %3, align 4
  ret i32 %45
}