; Function Attrs: nounwind uwtable
define internal fastcc noundef i32 @make_connection(ptr noundef %0, ptr noundef %1) unnamed_addr #0 {
  %.not = icmp eq ptr %0, null
  br i1 %.not, label %29, label %3

3:                                                ; preds = %2
  %4 = tail call fastcc i32 @make_connection_real(ptr noundef nonnull %0, ptr noundef %1), !range !5
  %.not17 = icmp eq i32 %4, 0
  br i1 %.not17, label %.preheader24, label %29

.preheader24:                                     ; preds = %3
  %.not8.i = icmp eq ptr %1, null
  br i1 %.not8.i, label %._crit_edge, label %.lr.ph.split

.lr.ph.split:                                     ; preds = %.preheader24
  %5 = load i32, ptr %1, align 8
  %6 = icmp sgt i32 %5, 0
  br i1 %6, label %send_string_noreconn.exit, label %._crit_edge

._crit_edge:                                      ; preds = %11, %.lr.ph.split, %.preheader24
  tail call void @__assert_fail(ptr noundef nonnull @.str.12, ptr noundef nonnull @.str.11, i32 noundef 824, ptr noundef nonnull @__PRETTY_FUNCTION__.send_string_noreconn) #30
  unreachable

send_string_noreconn.exit:                        ; preds = %.lr.ph.split, %11
  %7 = phi i32 [ %12, %11 ], [ %5, %.lr.ph.split ]
  %8 = tail call i64 @send(i32 noundef %7, ptr noundef nonnull @.str.50, i64 noundef 20, i32 noundef 0) #25
  %9 = and i64 %8, 4294967295
  %10 = icmp eq i64 %9, 4294967295
  br i1 %10, label %11, label %send_string.exit

11:                                               ; preds = %send_string_noreconn.exit
  tail call fastcc void @reconnect(ptr noundef nonnull %1)
  %12 = load i32, ptr %1, align 8
  %13 = icmp sgt i32 %12, 0
  br i1 %13, label %send_string_noreconn.exit, label %._crit_edge

send_string.exit:                                 ; preds = %send_string_noreconn.exit
  %14 = getelementptr inbounds i8, ptr %1, i64 40
  %15 = load ptr, ptr %14, align 8
  tail call void @free(ptr noundef %15) #25
  store ptr null, ptr %14, align 8
  %16 = tail call fastcc i32 @read_version(ptr noundef nonnull %1), !range !6
  %.not18 = icmp eq i32 %16, 0
  br i1 %.not18, label %29, label %17

17:                                               ; preds = %send_string.exit
  %18 = tail call fastcc i32 @make_connection_real(ptr noundef nonnull %0, ptr noundef nonnull %1), !range !5
  %.not19 = icmp eq i32 %18, 0
  br i1 %.not19, label %.preheader, label %29

.preheader:                                       ; preds = %17
  %19 = load i32, ptr %1, align 8
  %20 = icmp sgt i32 %19, 0
  br i1 %20, label %send_string_noreconn.exit23, label %._crit_edge26

._crit_edge26:                                    ; preds = %25, %.preheader
  tail call void @__assert_fail(ptr noundef nonnull @.str.12, ptr noundef nonnull @.str.11, i32 noundef 824, ptr noundef nonnull @__PRETTY_FUNCTION__.send_string_noreconn) #30
  unreachable

send_string_noreconn.exit23:                      ; preds = %.preheader, %25
  %21 = phi i32 [ %26, %25 ], [ %19, %.preheader ]
  %22 = tail call i64 @send(i32 noundef %21, ptr noundef nonnull @.str.51, i64 noundef 18, i32 noundef 0) #25
  %23 = and i64 %22, 4294967295
  %24 = icmp eq i64 %23, 4294967295
  br i1 %24, label %25, label %send_string.exit21

25:                                               ; preds = %send_string_noreconn.exit23
  tail call fastcc void @reconnect(ptr noundef nonnull %1)
  %26 = load i32, ptr %1, align 8
  %27 = icmp sgt i32 %26, 0
  br i1 %27, label %send_string_noreconn.exit23, label %._crit_edge26

send_string.exit21:                               ; preds = %send_string_noreconn.exit23
  store ptr null, ptr %14, align 8
  %28 = tail call fastcc i32 @read_version(ptr noundef nonnull %1), !range !6
  %.not20 = icmp ne i32 %28, 0
  %. = sext i1 %.not20 to i32
  br label %29

29:                                               ; preds = %send_string.exit21, %17, %send_string.exit, %3, %2
  %.0 = phi i32 [ -1, %2 ], [ -1, %3 ], [ 0, %send_string.exit ], [ -1, %17 ], [ %., %send_string.exit21 ]
  ret i32 %.0
}